; Function Attrs: mustprogress uwtable
define dso_local void @_ZNK11flatbuffers13BaseGenerator15WrapInNameSpaceEPKNS_9NamespaceERKNSt7__cxx1112basic_stringIcSt11char_traitsIcESaIcEEE(ptr noalias sret(%"class.std::__cxx11::basic_string") align 8 %agg.result, ptr noundef nonnull align 8 dereferenceable(128) %this, ptr nocapture noundef readonly %ns, ptr noundef nonnull align 8 dereferenceable(32) %name) local_unnamed_addr #0 align 2 personality ptr @__gxx_personality_v0 {
entry:
  %qualified_name = alloca %"class.std::__cxx11::basic_string", align 8
  %ref.tmp6 = alloca %"class.std::__cxx11::basic_string", align 8
  %qualifying_start_ = getelementptr inbounds i8, ptr %this, i64 32
  call void @_ZNSt7__cxx1112basic_stringIcSt11char_traitsIcESaIcEEC1ERKS4_(ptr noundef nonnull align 8 dereferenceable(32) %qualified_name, ptr noundef nonnull align 8 dereferenceable(32) %qualifying_start_)
  %0 = load ptr, ptr %ns, align 8
  %_M_finish.i = getelementptr inbounds i8, ptr %ns, i64 8
  %1 = load ptr, ptr %_M_finish.i, align 8
  %cmp.i.not13 = icmp eq ptr %0, %1
  br i1 %cmp.i.not13, label %for.end, label %for.body.lr.ph

for.body.lr.ph:                                   ; preds = %entry
  %qualifying_separator_ = getelementptr inbounds i8, ptr %this, i64 64
  br label %for.body

for.body:                                         ; preds = %for.body.lr.ph, %invoke.cont9
  %it.sroa.0.014 = phi ptr [ %0, %for.body.lr.ph ], [ %incdec.ptr.i, %invoke.cont9 ]
  invoke void @_ZNSt7__cxx1112basic_stringIcSt11char_traitsIcESaIcEEC1ERKS4_(ptr noundef nonnull align 8 dereferenceable(32) %ref.tmp6, ptr noundef nonnull align 8 dereferenceable(32) %it.sroa.0.014)
          to label %.noexc unwind label %lpad.loopexit

.noexc:                                           ; preds = %for.body
  %call.i = invoke noundef nonnull align 8 dereferenceable(32) ptr @_ZNSt7__cxx1112basic_stringIcSt11char_traitsIcESaIcEE6appendERKS4_(ptr noundef nonnull align 8 dereferenceable(32) %ref.tmp6, ptr noundef nonnull align 8 dereferenceable(32) %qualifying_separator_)
          to label %invoke.cont unwind label %lpad.i

lpad.i:                                           ; preds = %.noexc
  %2 = landingpad { ptr, i32 }
          cleanup
  call void @_ZNSt7__cxx1112basic_stringIcSt11char_traitsIcESaIcEED1Ev(ptr noundef nonnull align 8 dereferenceable(32) %ref.tmp6) #12
  br label %ehcleanup

invoke.cont:                                      ; preds = %.noexc
  %call10 = invoke noundef nonnull align 8 dereferenceable(32) ptr @_ZNSt7__cxx1112basic_stringIcSt11char_traitsIcESaIcEEpLERKS4_(ptr noundef nonnull align 8 dereferenceable(32) %qualified_name, ptr noundef nonnull align 8 dereferenceable(32) %ref.tmp6)
          to label %invoke.cont9 unwind label %lpad8

invoke.cont9:                                     ; preds = %invoke.cont
  call void @_ZNSt7__cxx1112basic_stringIcSt11char_traitsIcESaIcEED1Ev(ptr noundef nonnull align 8 dereferenceable(32) %ref.tmp6) #12
  %incdec.ptr.i = getelementptr inbounds i8, ptr %it.sroa.0.014, i64 32
  %3 = load ptr, ptr %_M_finish.i, align 8
  %cmp.i.not = icmp eq ptr %incdec.ptr.i, %3
  br i1 %cmp.i.not, label %for.end, label %for.body, !llvm.loop !14

lpad.loopexit:                                    ; preds = %for.body
  %lpad.loopexit11 = landingpad { ptr, i32 }
          cleanup
  br label %ehcleanup

lpad.loopexit.split-lp:                           ; preds = %for.end
  %lpad.loopexit.split-lp12 = landingpad { ptr, i32 }
          cleanup
  br label %ehcleanup

lpad8:                                            ; preds = %invoke.cont
  %4 = landingpad { ptr, i32 }
          cleanup
  call void @_ZNSt7__cxx1112basic_stringIcSt11char_traitsIcESaIcEED1Ev(ptr noundef nonnull align 8 dereferenceable(32) %ref.tmp6) #12
  br label %ehcleanup

for.end:                                          ; preds = %invoke.cont9, %entry
  invoke void @_ZNSt7__cxx1112basic_stringIcSt11char_traitsIcESaIcEEC1ERKS4_(ptr noundef nonnull align 8 dereferenceable(32) %agg.result, ptr noundef nonnull align 8 dereferenceable(32) %qualified_name)
          to label %.noexc5 unwind label %lpad.loopexit.split-lp

.noexc5:                                          ; preds = %for.end
  %call.i3 = invoke noundef nonnull align 8 dereferenceable(32) ptr @_ZNSt7__cxx1112basic_stringIcSt11char_traitsIcESaIcEE6appendERKS4_(ptr noundef nonnull align 8 dereferenceable(32) %agg.result, ptr noundef nonnull align 8 dereferenceable(32) %name)
          to label %invoke.cont12 unwind label %lpad.i4

lpad.i4:                                          ; preds = %.noexc5
  %5 = landingpad { ptr, i32 }
          cleanup
  call void @_ZNSt7__cxx1112basic_stringIcSt11char_traitsIcESaIcEED1Ev(ptr noundef nonnull align 8 dereferenceable(32) %agg.result) #12
  br label %ehcleanup

invoke.cont12:                                    ; preds = %.noexc5
  call void @_ZNSt7__cxx1112basic_stringIcSt11char_traitsIcESaIcEED1Ev(ptr noundef nonnull align 8 dereferenceable(32) %qualified_name) #12
  ret void

ehcleanup:                                        ; preds = %lpad.loopexit, %lpad.loopexit.split-lp, %lpad.i, %lpad.i4, %lpad8
  %.pn = phi { ptr, i32 } [ %4, %lpad8 ], [ %2, %lpad.i ], [ %5, %lpad.i4 ], [ %lpad.loopexit11, %lpad.loopexit ], [ %lpad.loopexit.split-lp12, %lpad.loopexit.split-lp ]
  call void @_ZNSt7__cxx1112basic_stringIcSt11char_traitsIcESaIcEED1Ev(ptr noundef nonnull align 8 dereferenceable(32) %qualified_name) #12
  resume { ptr, i32 } %.pn
}